target datalayout = "e-m:e-p270:32:32-p271:32:32-p272:64:64-i64:64-i128:128-f80:128-n8:16:32:64-S128"
target triple = "x86_64-pc-linux-gnu"

@stderr = external global ptr, align 8
@.str.76 = private unnamed_addr constant [5 x i8] c"%d B\00", align 1
@.str.77 = private unnamed_addr constant [10 x i8] c"%0.3f KiB\00", align 1
@.str.78 = private unnamed_addr constant [10 x i8] c"%0.3f MiB\00", align 1
@.str.79 = private unnamed_addr constant [10 x i8] c"%0.3f GiB\00", align 1

; Function Attrs: nounwind uwtable
define internal void @PrintBytes(i64 noundef %0) #0 {
  %2 = alloca i64, align 8
  store i64 %0, ptr %2, align 8, !tbaa !52
  %3 = load i64, ptr %2, align 8, !tbaa !52
  %4 = icmp ult i64 %3, 1024
  br i1 %4, label %5, label %10

5:                                                ; preds = %1
  %6 = load ptr, ptr @stderr, align 8, !tbaa !53
  %7 = load i64, ptr %2, align 8, !tbaa !52
  %8 = trunc i64 %7 to i32
  %9 = call i32 (ptr, ptr, ...) @fprintf(ptr noundef %6, ptr noundef @.str.76, i32 noundef %8) #8
  br label %36

10:                                               ; preds = %1
  %11 = load i64, ptr %2, align 8, !tbaa !52
  %12 = icmp ult i64 %11, 1048576
  br i1 %12, label %13, label %19

13:                                               ; preds = %10
  %14 = load ptr, ptr @stderr, align 8, !tbaa !53
  %15 = load i64, ptr %2, align 8, !tbaa !52
  %16 = uitofp i64 %15 to double
  %17 = fdiv double %16, 1.024000e+03
  %18 = call i32 (ptr, ptr, ...) @fprintf(ptr noundef %14, ptr noundef @.str.77, double noundef %17) #8
  br label %35

19:                                               ; preds = %10
  %20 = load i64, ptr %2, align 8, !tbaa !52
  %21 = icmp ult i64 %20, 1073741824
  br i1 %21, label %22, label %28

22:                                               ; preds = %19
  %23 = load ptr, ptr @stderr, align 8, !tbaa !53
  %24 = load i64, ptr %2, align 8, !tbaa !52
  %25 = uitofp i64 %24 to double
  %26 = fdiv double %25, 0x4130000000000000
  %27 = call i32 (ptr, ptr, ...) @fprintf(ptr noundef %23, ptr noundef @.str.78, double noundef %26) #8
  br label %34

28:                                               ; preds = %19
  %29 = load ptr, ptr @stderr, align 8, !tbaa !53
  %30 = load i64, ptr %2, align 8, !tbaa !52
  %31 = uitofp i64 %30 to double
  %32 = fdiv double %31, 0x41D0000000000000
  %33 = call i32 (ptr, ptr, ...) @fprintf(ptr noundef %29, ptr noundef @.str.79, double noundef %32) #8
  br label %34

34:                                               ; preds = %28, %22
  br label %35

35:                                               ; preds = %34, %13
  br label %36

36:                                               ; preds = %35, %5
  ret void
}