; Function Attrs: cold nofree nounwind uwtable
define internal fastcc void @PrintBytes(i64 noundef %0) unnamed_addr #15 {
  %2 = icmp ult i64 %0, 1024
  br i1 %2, label %3, label %7

3:                                                ; preds = %1
  %4 = load ptr, ptr @stderr, align 8, !tbaa !30
  %5 = trunc nuw nsw i64 %0 to i32
  %6 = tail call i32 (ptr, ptr, ...) @fprintf(ptr noundef %4, ptr noundef nonnull @.str.76, i32 noundef %5) #24
  br label %24

7:                                                ; preds = %1
  %8 = icmp ult i64 %0, 1048576
  br i1 %8, label %9, label %14

9:                                                ; preds = %7
  %10 = load ptr, ptr @stderr, align 8, !tbaa !30
  %11 = uitofp nneg i64 %0 to double
  %12 = fmul double %11, 0x3F50000000000000
  %13 = tail call i32 (ptr, ptr, ...) @fprintf(ptr noundef %10, ptr noundef nonnull @.str.77, double noundef %12) #24
  br label %24

14:                                               ; preds = %7
  %15 = icmp ult i64 %0, 1073741824
  %16 = load ptr, ptr @stderr, align 8, !tbaa !30
  %17 = uitofp i64 %0 to double
  br i1 %15, label %18, label %21

18:                                               ; preds = %14
  %19 = fmul double %17, 0x3EB0000000000000
  %20 = tail call i32 (ptr, ptr, ...) @fprintf(ptr noundef %16, ptr noundef nonnull @.str.78, double noundef %19) #24
  br label %24

21:                                               ; preds = %14
  %22 = fmul double %17, 0x3E10000000000000
  %23 = tail call i32 (ptr, ptr, ...) @fprintf(ptr noundef %16, ptr noundef nonnull @.str.79, double noundef %22) #24
  br label %24

24:                                               ; preds = %9, %21, %18, %3
  ret void
}